target datalayout = "e-m:e-p270:32:32-p271:32:32-p272:64:64-i64:64-i128:128-f80:128-n8:16:32:64-S128"
target triple = "x86_64-pc-linux-gnu"

%struct.Tarjan = type { ptr, i32, i32, ptr, ptr, ptr, ptr, ptr, ptr, ptr, ptr }

; Function Attrs: mustprogress nounwind uwtable
define hidden void @_ZN6Tarjan8COMPRESSEv(ptr noundef nonnull align 8 dereferenceable(80) %0) #1 align 2 {
  %2 = alloca ptr, align 8
  store ptr %0, ptr %2, align 8
  %3 = load ptr, ptr %2, align 8
  %4 = getelementptr inbounds %struct.Tarjan, ptr %3, i32 0, i32 5
  %5 = load ptr, ptr %4, align 8
  %6 = getelementptr inbounds %struct.Tarjan, ptr %5, i32 0, i32 5
  %7 = load ptr, ptr %6, align 8
  %8 = icmp ne ptr %7, null
  br i1 %8, label %9, label %35

9:                                                ; preds = %1
  %10 = getelementptr inbounds %struct.Tarjan, ptr %3, i32 0, i32 5
  %11 = load ptr, ptr %10, align 8
  call void @_ZN6Tarjan8COMPRESSEv(ptr noundef nonnull align 8 dereferenceable(80) %11)
  %12 = getelementptr inbounds %struct.Tarjan, ptr %3, i32 0, i32 5
  %13 = load ptr, ptr %12, align 8
  %14 = getelementptr inbounds %struct.Tarjan, ptr %13, i32 0, i32 4
  %15 = load ptr, ptr %14, align 8
  %16 = getelementptr inbounds %struct.Tarjan, ptr %15, i32 0, i32 1
  %17 = load i32, ptr %16, align 8
  %18 = getelementptr inbounds %struct.Tarjan, ptr %3, i32 0, i32 4
  %19 = load ptr, ptr %18, align 8
  %20 = getelementptr inbounds %struct.Tarjan, ptr %19, i32 0, i32 1
  %21 = load i32, ptr %20, align 8
  %22 = icmp ult i32 %17, %21
  br i1 %22, label %23, label %29

23:                                               ; preds = %9
  %24 = getelementptr inbounds %struct.Tarjan, ptr %3, i32 0, i32 5
  %25 = load ptr, ptr %24, align 8
  %26 = getelementptr inbounds %struct.Tarjan, ptr %25, i32 0, i32 4
  %27 = load ptr, ptr %26, align 8
  %28 = getelementptr inbounds %struct.Tarjan, ptr %3, i32 0, i32 4
  store ptr %27, ptr %28, align 8
  br label %29

29:                                               ; preds = %23, %9
  %30 = getelementptr inbounds %struct.Tarjan, ptr %3, i32 0, i32 5
  %31 = load ptr, ptr %30, align 8
  %32 = getelementptr inbounds %struct.Tarjan, ptr %31, i32 0, i32 5
  %33 = load ptr, ptr %32, align 8
  %34 = getelementptr inbounds %struct.Tarjan, ptr %3, i32 0, i32 5
  store ptr %33, ptr %34, align 8
  br label %35

35:                                               ; preds = %29, %1
  ret void
}