; Function Attrs: mustprogress nofree nosync nounwind memory(readwrite, inaccessiblemem: none) uwtable
define hidden void @_ZN6Tarjan8COMPRESSEv(ptr nocapture noundef nonnull align 8 dereferenceable(80) %0) local_unnamed_addr #2 align 2 {
  %2 = getelementptr inbounds i8, ptr %0, i64 32
  %3 = load ptr, ptr %2, align 8
  %4 = getelementptr inbounds i8, ptr %3, i64 32
  %5 = load ptr, ptr %4, align 8
  %.not = icmp eq ptr %5, null
  br i1 %.not, label %21, label %6

6:                                                ; preds = %1
  tail call void @_ZN6Tarjan8COMPRESSEv(ptr noundef nonnull align 8 dereferenceable(80) %3)
  %7 = load ptr, ptr %2, align 8
  %8 = getelementptr inbounds i8, ptr %7, i64 24
  %9 = load ptr, ptr %8, align 8
  %10 = getelementptr inbounds i8, ptr %9, i64 8
  %11 = load i32, ptr %10, align 8
  %12 = getelementptr inbounds i8, ptr %0, i64 24
  %13 = load ptr, ptr %12, align 8
  %14 = getelementptr inbounds i8, ptr %13, i64 8
  %15 = load i32, ptr %14, align 8
  %16 = icmp ult i32 %11, %15
  br i1 %16, label %17, label %18

17:                                               ; preds = %6
  store ptr %9, ptr %12, align 8
  br label %18

18:                                               ; preds = %17, %6
  %19 = getelementptr inbounds i8, ptr %7, i64 32
  %20 = load ptr, ptr %19, align 8
  store ptr %20, ptr %2, align 8
  br label %21

21:                                               ; preds = %18, %1
  ret void
}